target datalayout = "e-m:e-p270:32:32-p271:32:32-p272:64:64-i64:64-i128:128-f80:128-n8:16:32:64-S128"
target triple = "x86_64-unknown-linux-gnu"

%struct.QTailQLink = type { ptr, ptr }
%struct.MemoryRegion = type { %struct.Object, i8, i8, i8, i8, i8, i8, i8, i8, i8, i8, ptr, ptr, ptr, ptr, ptr, ptr, i32, i128, i64, ptr, i64, i8, i8, i8, i8, i8, ptr, i64, i32, %union.anon.2, %union.anon.3, %union.anon.4, ptr, i32, ptr, ptr, i8 }
%struct.Object = type { ptr, ptr, ptr, i32, ptr }
%union.anon.2 = type { %struct.QTailQLink }
%union.anon.3 = type { %struct.QTailQLink }
%union.anon.4 = type { %struct.QTailQLink }
%struct.MemoryRegionPortio = type { i32, i32, i32, ptr, ptr, i32 }
%struct.MemoryRegionPortioList = type { %struct.Object, %struct.MemoryRegion, ptr, ptr }

; Function Attrs: nounwind sspstrong uwtable
define internal ptr @find_portio(ptr noundef %mrpio, i64 noundef %offset, i32 noundef %size, i1 noundef zeroext %write) #0 {
entry:
  %retval = alloca ptr, align 8
  %mrpio.addr = alloca ptr, align 8
  %offset.addr = alloca i64, align 8
  %size.addr = alloca i32, align 4
  %write.addr = alloca i8, align 1
  %mrp = alloca ptr, align 8
  store ptr %mrpio, ptr %mrpio.addr, align 8
  store i64 %offset, ptr %offset.addr, align 8
  store i32 %size, ptr %size.addr, align 4
  %frombool = zext i1 %write to i8
  store i8 %frombool, ptr %write.addr, align 1
  %0 = load ptr, ptr %mrpio.addr, align 8
  %ports = getelementptr inbounds %struct.MemoryRegionPortioList, ptr %0, i32 0, i32 3
  %1 = load ptr, ptr %ports, align 8
  store ptr %1, ptr %mrp, align 8
  br label %for.cond

for.cond:                                         ; preds = %for.inc, %entry
  %2 = load ptr, ptr %mrp, align 8
  %size1 = getelementptr inbounds %struct.MemoryRegionPortio, ptr %2, i32 0, i32 2
  %3 = load i32, ptr %size1, align 8
  %tobool = icmp ne i32 %3, 0
  br i1 %tobool, label %for.body, label %for.end

for.body:                                         ; preds = %for.cond
  %4 = load i64, ptr %offset.addr, align 8
  %5 = load ptr, ptr %mrp, align 8
  %offset2 = getelementptr inbounds %struct.MemoryRegionPortio, ptr %5, i32 0, i32 0
  %6 = load i32, ptr %offset2, align 8
  %conv = zext i32 %6 to i64
  %cmp = icmp uge i64 %4, %conv
  br i1 %cmp, label %land.lhs.true, label %if.end

land.lhs.true:                                    ; preds = %for.body
  %7 = load i64, ptr %offset.addr, align 8
  %8 = load ptr, ptr %mrp, align 8
  %offset4 = getelementptr inbounds %struct.MemoryRegionPortio, ptr %8, i32 0, i32 0
  %9 = load i32, ptr %offset4, align 8
  %10 = load ptr, ptr %mrp, align 8
  %len = getelementptr inbounds %struct.MemoryRegionPortio, ptr %10, i32 0, i32 1
  %11 = load i32, ptr %len, align 4
  %add = add i32 %9, %11
  %conv5 = zext i32 %add to i64
  %cmp6 = icmp ult i64 %7, %conv5
  br i1 %cmp6, label %land.lhs.true8, label %if.end

land.lhs.true8:                                   ; preds = %land.lhs.true
  %12 = load i32, ptr %size.addr, align 4
  %13 = load ptr, ptr %mrp, align 8
  %size9 = getelementptr inbounds %struct.MemoryRegionPortio, ptr %13, i32 0, i32 2
  %14 = load i32, ptr %size9, align 8
  %cmp10 = icmp eq i32 %12, %14
  br i1 %cmp10, label %land.lhs.true12, label %if.end

land.lhs.true12:                                  ; preds = %land.lhs.true8
  %15 = load i8, ptr %write.addr, align 1
  %tobool13 = trunc i8 %15 to i1
  br i1 %tobool13, label %cond.true, label %cond.false

cond.true:                                        ; preds = %land.lhs.true12
  %16 = load ptr, ptr %mrp, align 8
  %write15 = getelementptr inbounds %struct.MemoryRegionPortio, ptr %16, i32 0, i32 4
  %17 = load ptr, ptr %write15, align 8
  %tobool16 = icmp ne ptr %17, null
  br i1 %tobool16, label %if.then, label %if.end

cond.false:                                       ; preds = %land.lhs.true12
  %18 = load ptr, ptr %mrp, align 8
  %read = getelementptr inbounds %struct.MemoryRegionPortio, ptr %18, i32 0, i32 3
  %19 = load ptr, ptr %read, align 8
  %tobool18 = icmp ne ptr %19, null
  br i1 %tobool18, label %if.then, label %if.end

if.then:                                          ; preds = %cond.false, %cond.true
  %20 = load ptr, ptr %mrp, align 8
  store ptr %20, ptr %retval, align 8
  br label %return

if.end:                                           ; preds = %cond.false, %cond.true, %land.lhs.true8, %land.lhs.true, %for.body
  br label %for.inc

for.inc:                                          ; preds = %if.end
  %21 = load ptr, ptr %mrp, align 8
  %incdec.ptr = getelementptr %struct.MemoryRegionPortio, ptr %21, i32 1
  store ptr %incdec.ptr, ptr %mrp, align 8
  br label %for.cond, !llvm.loop !14

for.end:                                          ; preds = %for.cond
  store ptr null, ptr %retval, align 8
  br label %return

return:                                           ; preds = %for.end, %if.then
  %22 = load ptr, ptr %retval, align 8
  ret ptr %22
}

; Function Attrs: nounwind sspstrong uwtable
define internal void @portio_write(ptr noundef %opaque, i64 noundef %addr, i64 noundef %data, i32 noundef %size) #0 {
entry:
  %opaque.addr = alloca ptr, align 8
  %addr.addr = alloca i64, align 8
  %data.addr = alloca i64, align 8
  %size.addr = alloca i32, align 4
  %mrpio = alloca ptr, align 8
  %mrp = alloca ptr, align 8
  store ptr %opaque, ptr %opaque.addr, align 8
  store i64 %addr, ptr %addr.addr, align 8
  store i64 %data, ptr %data.addr, align 8
  store i32 %size, ptr %size.addr, align 4
  %0 = load ptr, ptr %opaque.addr, align 8
  store ptr %0, ptr %mrpio, align 8
  %1 = load ptr, ptr %mrpio, align 8
  %2 = load i64, ptr %addr.addr, align 8
  %3 = load i32, ptr %size.addr, align 4
  %call = call ptr @find_portio(ptr noundef %1, i64 noundef %2, i32 noundef %3, i1 noundef zeroext true)
  store ptr %call, ptr %mrp, align 8
  %4 = load ptr, ptr %mrp, align 8
  %tobool = icmp ne ptr %4, null
  br i1 %tobool, label %if.then, label %if.else

if.then:                                          ; preds = %entry
  %5 = load ptr, ptr %mrp, align 8
  %write = getelementptr inbounds %struct.MemoryRegionPortio, ptr %5, i32 0, i32 4
  %6 = load ptr, ptr %write, align 8
  %7 = load ptr, ptr %mrpio, align 8
  %portio_opaque = getelementptr inbounds %struct.MemoryRegionPortioList, ptr %7, i32 0, i32 2
  %8 = load ptr, ptr %portio_opaque, align 16
  %9 = load ptr, ptr %mrp, align 8
  %base = getelementptr inbounds %struct.MemoryRegionPortio, ptr %9, i32 0, i32 5
  %10 = load i32, ptr %base, align 8
  %conv = zext i32 %10 to i64
  %11 = load i64, ptr %addr.addr, align 8
  %add = add i64 %conv, %11
  %conv1 = trunc i64 %add to i32
  %12 = load i64, ptr %data.addr, align 8
  %conv2 = trunc i64 %12 to i32
  call void %6(ptr noundef %8, i32 noundef %conv1, i32 noundef %conv2)
  br label %if.end31

if.else:                                          ; preds = %entry
  %13 = load i32, ptr %size.addr, align 4
  %cmp = icmp eq i32 %13, 2
  br i1 %cmp, label %if.then4, label %if.end30

if.then4:                                         ; preds = %if.else
  %14 = load ptr, ptr %mrpio, align 8
  %15 = load i64, ptr %addr.addr, align 8
  %call5 = call ptr @find_portio(ptr noundef %14, i64 noundef %15, i32 noundef 1, i1 noundef zeroext true)
  store ptr %call5, ptr %mrp, align 8
  %16 = load ptr, ptr %mrp, align 8
  %tobool6 = icmp ne ptr %16, null
  br i1 %tobool6, label %if.then7, label %if.end29

if.then7:                                         ; preds = %if.then4
  %17 = load ptr, ptr %mrp, align 8
  %write8 = getelementptr inbounds %struct.MemoryRegionPortio, ptr %17, i32 0, i32 4
  %18 = load ptr, ptr %write8, align 8
  %19 = load ptr, ptr %mrpio, align 8
  %portio_opaque9 = getelementptr inbounds %struct.MemoryRegionPortioList, ptr %19, i32 0, i32 2
  %20 = load ptr, ptr %portio_opaque9, align 16
  %21 = load ptr, ptr %mrp, align 8
  %base10 = getelementptr inbounds %struct.MemoryRegionPortio, ptr %21, i32 0, i32 5
  %22 = load i32, ptr %base10, align 8
  %conv11 = zext i32 %22 to i64
  %23 = load i64, ptr %addr.addr, align 8
  %add12 = add i64 %conv11, %23
  %conv13 = trunc i64 %add12 to i32
  %24 = load i64, ptr %data.addr, align 8
  %and = and i64 %24, 255
  %conv14 = trunc i64 %and to i32
  call void %18(ptr noundef %20, i32 noundef %conv13, i32 noundef %conv14)
  %25 = load i64, ptr %addr.addr, align 8
  %add15 = add i64 %25, 1
  %26 = load ptr, ptr %mrp, align 8
  %offset = getelementptr inbounds %struct.MemoryRegionPortio, ptr %26, i32 0, i32 0
  %27 = load i32, ptr %offset, align 8
  %28 = load ptr, ptr %mrp, align 8
  %len = getelementptr inbounds %struct.MemoryRegionPortio, ptr %28, i32 0, i32 1
  %29 = load i32, ptr %len, align 4
  %add16 = add i32 %27, %29
  %conv17 = zext i32 %add16 to i64
  %cmp18 = icmp ult i64 %add15, %conv17
  br i1 %cmp18, label %if.then20, label %if.end

if.then20:                                        ; preds = %if.then7
  %30 = load ptr, ptr %mrp, align 8
  %write21 = getelementptr inbounds %struct.MemoryRegionPortio, ptr %30, i32 0, i32 4
  %31 = load ptr, ptr %write21, align 8
  %32 = load ptr, ptr %mrpio, align 8
  %portio_opaque22 = getelementptr inbounds %struct.MemoryRegionPortioList, ptr %32, i32 0, i32 2
  %33 = load ptr, ptr %portio_opaque22, align 16
  %34 = load ptr, ptr %mrp, align 8
  %base23 = getelementptr inbounds %struct.MemoryRegionPortio, ptr %34, i32 0, i32 5
  %35 = load i32, ptr %base23, align 8
  %conv24 = zext i32 %35 to i64
  %36 = load i64, ptr %addr.addr, align 8
  %add25 = add i64 %conv24, %36
  %add26 = add i64 %add25, 1
  %conv27 = trunc i64 %add26 to i32
  %37 = load i64, ptr %data.addr, align 8
  %shr = lshr i64 %37, 8
  %conv28 = trunc i64 %shr to i32
  call void %31(ptr noundef %33, i32 noundef %conv27, i32 noundef %conv28)
  br label %if.end

if.end:                                           ; preds = %if.then20, %if.then7
  br label %if.end29

if.end29:                                         ; preds = %if.end, %if.then4
  br label %if.end30

if.end30:                                         ; preds = %if.end29, %if.else
  br label %if.end31

if.end31:                                         ; preds = %if.end30, %if.then
  ret void
}