; Function Attrs: nounwind sspstrong uwtable
define internal void @portio_write(ptr noundef readonly captures(none) %opaque, i64 noundef %addr, i64 noundef %data, i32 noundef %size) #1 {
entry:
  %0 = getelementptr i8, ptr %opaque, i64 328
  %opaque.val = load ptr, ptr %0, align 8
  %size11.i = getelementptr inbounds nuw i8, ptr %opaque.val, i64 8
  %1 = load i32, ptr %size11.i, align 8
  %tobool.not2.i = icmp eq i32 %1, 0
  br i1 %tobool.not2.i, label %if.end31, label %for.body.us.i

for.body.us.i:                                    ; preds = %entry, %for.inc.us.i
  %2 = phi i32 [ %6, %for.inc.us.i ], [ %1, %entry ]
  %mrp.03.us.i = phi ptr [ %incdec.ptr.us.i, %for.inc.us.i ], [ %opaque.val, %entry ]
  %3 = load i32, ptr %mrp.03.us.i, align 8
  %conv.us.i = zext i32 %3 to i64
  %cmp.not.us.i = icmp ult i64 %addr, %conv.us.i
  br i1 %cmp.not.us.i, label %for.inc.us.i, label %land.lhs.true.us.i

land.lhs.true.us.i:                               ; preds = %for.body.us.i
  %len.us.i = getelementptr inbounds nuw i8, ptr %mrp.03.us.i, i64 4
  %4 = load i32, ptr %len.us.i, align 4
  %add.us.i = add i32 %4, %3
  %conv5.us.i = zext i32 %add.us.i to i64
  %cmp6.us.i = icmp ult i64 %addr, %conv5.us.i
  %cmp10.us.i = icmp eq i32 %size, %2
  %or.cond.us.i = and i1 %cmp10.us.i, %cmp6.us.i
  br i1 %or.cond.us.i, label %land.lhs.true12.us.i, label %for.inc.us.i

land.lhs.true12.us.i:                             ; preds = %land.lhs.true.us.i
  %write15.us.i = getelementptr inbounds nuw i8, ptr %mrp.03.us.i, i64 24
  %5 = load ptr, ptr %write15.us.i, align 8
  %tobool16.not.us.i = icmp eq ptr %5, null
  br i1 %tobool16.not.us.i, label %for.inc.us.i, label %if.then

for.inc.us.i:                                     ; preds = %land.lhs.true12.us.i, %land.lhs.true.us.i, %for.body.us.i
  %incdec.ptr.us.i = getelementptr i8, ptr %mrp.03.us.i, i64 40
  %size1.us.i = getelementptr i8, ptr %mrp.03.us.i, i64 48
  %6 = load i32, ptr %size1.us.i, align 8
  %tobool.not.us.i = icmp eq i32 %6, 0
  br i1 %tobool.not.us.i, label %if.else, label %for.body.us.i, !llvm.loop !14

if.then:                                          ; preds = %land.lhs.true12.us.i
  %portio_opaque = getelementptr inbounds nuw i8, ptr %opaque, i64 320
  %7 = load ptr, ptr %portio_opaque, align 16
  %base = getelementptr inbounds nuw i8, ptr %mrp.03.us.i, i64 32
  %8 = load i32, ptr %base, align 8
  %9 = trunc i64 %addr to i32
  %conv1 = add i32 %8, %9
  %conv2 = trunc i64 %data to i32
  tail call void %5(ptr noundef %7, i32 noundef %conv1, i32 noundef %conv2) #11
  br label %if.end31

if.else:                                          ; preds = %for.inc.us.i
  %cmp.not = icmp eq i32 %size, 2
  br i1 %cmp.not, label %for.body.us.i26, label %if.end31

for.body.us.i26:                                  ; preds = %if.else, %for.inc.us.i37
  %10 = phi i32 [ %14, %for.inc.us.i37 ], [ %1, %if.else ]
  %mrp.03.us.i27 = phi ptr [ %incdec.ptr.us.i38, %for.inc.us.i37 ], [ %opaque.val, %if.else ]
  %11 = load i32, ptr %mrp.03.us.i27, align 8
  %conv.us.i28 = zext i32 %11 to i64
  %cmp.not.us.i29 = icmp ult i64 %addr, %conv.us.i28
  br i1 %cmp.not.us.i29, label %for.inc.us.i37, label %land.lhs.true.us.i30

land.lhs.true.us.i30:                             ; preds = %for.body.us.i26
  %len.us.i31 = getelementptr inbounds nuw i8, ptr %mrp.03.us.i27, i64 4
  %12 = load i32, ptr %len.us.i31, align 4
  %add.us.i32 = add i32 %12, %11
  %conv5.us.i33 = zext i32 %add.us.i32 to i64
  %cmp6.us.i34 = icmp ult i64 %addr, %conv5.us.i33
  %cmp10.us.i35 = icmp eq i32 %10, 1
  %or.cond.us.i36 = and i1 %cmp10.us.i35, %cmp6.us.i34
  br i1 %or.cond.us.i36, label %land.lhs.true12.us.i42, label %for.inc.us.i37

land.lhs.true12.us.i42:                           ; preds = %land.lhs.true.us.i30
  %write15.us.i43 = getelementptr inbounds nuw i8, ptr %mrp.03.us.i27, i64 24
  %13 = load ptr, ptr %write15.us.i43, align 8
  %tobool16.not.us.i44 = icmp eq ptr %13, null
  br i1 %tobool16.not.us.i44, label %for.inc.us.i37, label %if.then7

for.inc.us.i37:                                   ; preds = %land.lhs.true12.us.i42, %land.lhs.true.us.i30, %for.body.us.i26
  %incdec.ptr.us.i38 = getelementptr i8, ptr %mrp.03.us.i27, i64 40
  %size1.us.i39 = getelementptr i8, ptr %mrp.03.us.i27, i64 48
  %14 = load i32, ptr %size1.us.i39, align 8
  %tobool.not.us.i40 = icmp eq i32 %14, 0
  br i1 %tobool.not.us.i40, label %if.end31, label %for.body.us.i26, !llvm.loop !14

if.then7:                                         ; preds = %land.lhs.true12.us.i42
  %len.us.i31.le = getelementptr inbounds nuw i8, ptr %mrp.03.us.i27, i64 4
  %portio_opaque9 = getelementptr inbounds nuw i8, ptr %opaque, i64 320
  %15 = load ptr, ptr %portio_opaque9, align 16
  %base10 = getelementptr inbounds nuw i8, ptr %mrp.03.us.i27, i64 32
  %16 = load i32, ptr %base10, align 8
  %17 = trunc i64 %addr to i32
  %conv13 = add i32 %16, %17
  %18 = trunc i64 %data to i32
  %conv14 = and i32 %18, 255
  tail call void %13(ptr noundef %15, i32 noundef %conv13, i32 noundef %conv14) #11
  %add15 = add nuw nsw i64 %addr, 1
  %19 = load i32, ptr %mrp.03.us.i27, align 8
  %20 = load i32, ptr %len.us.i31.le, align 4
  %add16 = add i32 %20, %19
  %conv17 = zext i32 %add16 to i64
  %cmp18 = icmp samesign ult i64 %add15, %conv17
  br i1 %cmp18, label %if.then20, label %if.end31

if.then20:                                        ; preds = %if.then7
  %write15.us.i43.le = getelementptr inbounds nuw i8, ptr %mrp.03.us.i27, i64 24
  %21 = load ptr, ptr %write15.us.i43.le, align 8
  %22 = load ptr, ptr %portio_opaque9, align 16
  %23 = load i32, ptr %base10, align 8
  %24 = add nuw i32 %17, 1
  %conv27 = add i32 %24, %23
  %shr = lshr i64 %data, 8
  %conv28 = trunc i64 %shr to i32
  tail call void %21(ptr noundef %22, i32 noundef %conv27, i32 noundef %conv28) #11
  br label %if.end31

if.end31:                                         ; preds = %for.inc.us.i37, %if.else, %entry, %if.then7, %if.then20, %if.then
  ret void
}